(lp0
ccopy_reg
_reconstructor
p1
(c__main__
User
p2
c__builtin__
tuple
p3
(VHuntington
p4
VMcComiskie
p5
NI00
Vhmccomiskie0@admin.ch
p6
I1
tp7
tp8
Rp9
ag1
(g2
g3
(VLukas
p10
VCottrill
p11
NI01
Vlcottrill1@linkedin.com
p12
I2
tp13
tp14
Rp15
ag1
(g2
g3
(VHeath
p16
VRourke
p17
VGenderfluid
p18
I01
Vhrourke2@t.co
p19
I3
tp20
tp21
Rp22
ag1
(g2
g3
(VLucie
p23
VBrunetti
p24
VNon-binary
p25
I01
Vlbrunetti3@bbb.org
p26
I4
tp27
tp28
Rp29
ag1
(g2
g3
(VMinette
p30
VGraysmark
p31
NI01
Vmgraysmark4@fotki.com
p32
I5
tp33
tp34
Rp35
ag1
(g2
g3
(VStormi
p36
VThresher
p37
VNon-binary
p38
I01
Vsthresher5@umn.edu
p39
I6
tp40
tp41
Rp42
ag1
(g2
g3
(VRochella
p43
VBerry
p44
VFemale
p45
I00
Vrberry6@moonfruit.com
p46
I7
tp47
tp48
Rp49
ag1
(g2
g3
(VLock
p50
VPablo
p51
VGenderqueer
p52
I00
Vlpablo7@networkadvertising.org
p53
I8
tp54
tp55
Rp56
ag1
(g2
g3
(VAnton
p57
VHugnin
p58
VGenderqueer
p59
I01
Vahugnin8@flickr.com
p60
I9
tp61
tp62
Rp63
ag1
(g2
g3
(VStephi
p64
VJacqueme
p65
VMale
p66
I00
Vsjacqueme9@exblog.jp
p67
I10
tp68
tp69
Rp70
a.